target datalayout = "e-m:e-p270:32:32-p271:32:32-p272:64:64-i64:64-i128:128-f80:128-n8:16:32:64-S128"
target triple = "x86_64-pc-linux-gnu"

%struct.dt_film_import1_t = type { ptr, ptr }

@.str.1 = private unnamed_addr constant [14 x i8] c"import images\00", align 1
@.str.2 = private unnamed_addr constant [26 x i8] c"import commandline images\00", align 1

; Function Attrs: nounwind uwtable
define ptr @dt_pathlist_import_create(i32 noundef %0, ptr noundef %1) #0 {
  %3 = alloca ptr, align 8
  %4 = alloca i32, align 4
  %5 = alloca ptr, align 8
  %6 = alloca ptr, align 8
  %7 = alloca i32, align 4
  %8 = alloca ptr, align 8
  %9 = alloca i32, align 4
  %10 = alloca ptr, align 8
  %11 = alloca ptr, align 8
  %12 = alloca ptr, align 8
  %13 = alloca ptr, align 8
  store i32 %0, ptr %4, align 4, !tbaa !27
  store ptr %1, ptr %5, align 8, !tbaa !28
  call void @llvm.lifetime.start.p0(i64 8, ptr %6) #9
  %14 = call ptr (ptr, ptr, ...) @dt_control_job_create(ptr noundef @_pathlist_import_run, ptr noundef @.str.2)
  store ptr %14, ptr %6, align 8, !tbaa !11
  %15 = load ptr, ptr %6, align 8, !tbaa !11
  %16 = icmp ne ptr %15, null
  br i1 %16, label %18, label %17

17:                                               ; preds = %2
  store ptr null, ptr %3, align 8
  store i32 1, ptr %7, align 4
  br label %118

18:                                               ; preds = %2
  call void @llvm.lifetime.start.p0(i64 8, ptr %8) #9
  %19 = call noalias ptr @calloc(i64 noundef 1, i64 noundef 16) #10
  store ptr %19, ptr %8, align 8, !tbaa !13
  %20 = load ptr, ptr %8, align 8, !tbaa !13
  %21 = icmp ne ptr %20, null
  br i1 %21, label %24, label %22

22:                                               ; preds = %18
  %23 = load ptr, ptr %6, align 8, !tbaa !11
  call void @dt_control_job_dispose(ptr noundef %23)
  store ptr null, ptr %3, align 8
  store i32 1, ptr %7, align 4
  br label %117

24:                                               ; preds = %18
  %25 = load ptr, ptr %6, align 8, !tbaa !11
  %26 = call ptr @dcgettext(ptr noundef null, ptr noundef @.str.1, i32 noundef 5) #9
  call void @dt_control_job_add_progress(ptr noundef %25, ptr noundef %26, i32 noundef 1)
  %27 = load ptr, ptr %6, align 8, !tbaa !11
  %28 = load ptr, ptr %8, align 8, !tbaa !13
  call void @dt_control_job_set_params(ptr noundef %27, ptr noundef %28, ptr noundef @_pathlist_import_cleanup)
  %29 = load ptr, ptr %8, align 8, !tbaa !13
  %30 = getelementptr inbounds nuw %struct.dt_film_import1_t, ptr %29, i32 0, i32 0
  store ptr null, ptr %30, align 8, !tbaa !15
  %31 = load ptr, ptr %8, align 8, !tbaa !13
  %32 = getelementptr inbounds nuw %struct.dt_film_import1_t, ptr %31, i32 0, i32 1
  store ptr null, ptr %32, align 8, !tbaa !30
  call void @llvm.lifetime.start.p0(i64 4, ptr %9) #9
  store i32 1, ptr %9, align 4, !tbaa !27
  br label %33

33:                                               ; preds = %106, %24
  %34 = load i32, ptr %9, align 4, !tbaa !27
  %35 = load i32, ptr %4, align 4, !tbaa !27
  %36 = icmp slt i32 %34, %35
  br i1 %36, label %38, label %37

37:                                               ; preds = %33
  store i32 2, ptr %7, align 4
  call void @llvm.lifetime.end.p0(i64 4, ptr %9) #9
  br label %109

38:                                               ; preds = %33
  call void @llvm.lifetime.start.p0(i64 8, ptr %10) #9
  %39 = load ptr, ptr %5, align 8, !tbaa !28
  %40 = load i32, ptr %9, align 4, !tbaa !27
  %41 = sext i32 %40 to i64
  %42 = getelementptr inbounds ptr, ptr %39, i64 %41
  %43 = load ptr, ptr %42, align 8, !tbaa !31
  %44 = call ptr @dt_util_normalize_path(ptr noundef %43)
  store ptr %44, ptr %10, align 8, !tbaa !31
  %45 = load ptr, ptr %10, align 8, !tbaa !31
  %46 = call i32 @g_file_test(ptr noundef %45, i32 noundef 4)
  %47 = icmp ne i32 %46, 0
  br i1 %47, label %56, label %48

48:                                               ; preds = %38
  %49 = load ptr, ptr %8, align 8, !tbaa !13
  %50 = getelementptr inbounds nuw %struct.dt_film_import1_t, ptr %49, i32 0, i32 1
  %51 = load ptr, ptr %50, align 8, !tbaa !30
  %52 = load ptr, ptr %10, align 8, !tbaa !31
  %53 = call ptr @g_list_prepend(ptr noundef %51, ptr noundef %52)
  %54 = load ptr, ptr %8, align 8, !tbaa !13
  %55 = getelementptr inbounds nuw %struct.dt_film_import1_t, ptr %54, i32 0, i32 1
  store ptr %53, ptr %55, align 8, !tbaa !30
  br label %105

56:                                               ; preds = %38
  call void @llvm.lifetime.start.p0(i64 8, ptr %11) #9
  %57 = load ptr, ptr %10, align 8, !tbaa !31
  %58 = call ptr @g_dir_open(ptr noundef %57, i32 noundef 0, ptr noundef null)
  store ptr %58, ptr %11, align 8, !tbaa !33
  %59 = load ptr, ptr %11, align 8, !tbaa !33
  %60 = icmp ne ptr %59, null
  br i1 %60, label %61, label %102

61:                                               ; preds = %56
  br label %62

62:                                               ; preds = %100, %98, %61
  br label %63

63:                                               ; preds = %62
  call void @llvm.lifetime.start.p0(i64 8, ptr %12) #9
  %64 = load ptr, ptr %11, align 8, !tbaa !33
  %65 = call ptr @g_dir_read_name(ptr noundef %64)
  store ptr %65, ptr %12, align 8, !tbaa !31
  %66 = load ptr, ptr %12, align 8, !tbaa !31
  %67 = icmp ne ptr %66, null
  br i1 %67, label %69, label %68

68:                                               ; preds = %63
  store i32 6, ptr %7, align 4
  br label %98

69:                                               ; preds = %63
  %70 = load ptr, ptr %12, align 8, !tbaa !31
  %71 = getelementptr inbounds i8, ptr %70, i64 0
  %72 = load i8, ptr %71, align 1, !tbaa !34
  %73 = sext i8 %72 to i32
  %74 = icmp eq i32 %73, 46
  br i1 %74, label %75, label %76

75:                                               ; preds = %69
  store i32 5, ptr %7, align 4
  br label %98

76:                                               ; preds = %69
  call void @llvm.lifetime.start.p0(i64 8, ptr %13) #9
  %77 = load ptr, ptr %10, align 8, !tbaa !31
  %78 = load ptr, ptr %12, align 8, !tbaa !31
  %79 = call noalias ptr (ptr, ...) @g_build_filename(ptr noundef %77, ptr noundef %78, ptr noundef null)
  store ptr %79, ptr %13, align 8, !tbaa !31
  %80 = load ptr, ptr %13, align 8, !tbaa !31
  %81 = call i32 @g_file_test(ptr noundef %80, i32 noundef 4)
  %82 = icmp ne i32 %81, 0
  br i1 %82, label %95, label %83

83:                                               ; preds = %76
  %84 = load ptr, ptr %12, align 8, !tbaa !31
  %85 = call i32 @dt_supported_image(ptr noundef %84)
  %86 = icmp ne i32 %85, 0
  br i1 %86, label %87, label %95

87:                                               ; preds = %83
  %88 = load ptr, ptr %8, align 8, !tbaa !13
  %89 = getelementptr inbounds nuw %struct.dt_film_import1_t, ptr %88, i32 0, i32 1
  %90 = load ptr, ptr %89, align 8, !tbaa !30
  %91 = load ptr, ptr %13, align 8, !tbaa !31
  %92 = call ptr @g_list_prepend(ptr noundef %90, ptr noundef %91)
  %93 = load ptr, ptr %8, align 8, !tbaa !13
  %94 = getelementptr inbounds nuw %struct.dt_film_import1_t, ptr %93, i32 0, i32 1
  store ptr %92, ptr %94, align 8, !tbaa !30
  br label %97

95:                                               ; preds = %83, %76
  %96 = load ptr, ptr %13, align 8, !tbaa !31
  call void @g_free(ptr noundef %96)
  br label %97

97:                                               ; preds = %95, %87
  call void @llvm.lifetime.end.p0(i64 8, ptr %13) #9
  store i32 0, ptr %7, align 4
  br label %98

98:                                               ; preds = %97, %75, %68
  call void @llvm.lifetime.end.p0(i64 8, ptr %12) #9
  %99 = load i32, ptr %7, align 4
  switch i32 %99, label %120 [
    i32 0, label %100
    i32 6, label %101
    i32 5, label %62
  ]

100:                                              ; preds = %98
  br label %62

101:                                              ; preds = %98
  br label %102

102:                                              ; preds = %101, %56
  %103 = load ptr, ptr %11, align 8, !tbaa !33
  call void @g_dir_close(ptr noundef %103)
  %104 = load ptr, ptr %10, align 8, !tbaa !31
  call void @g_free(ptr noundef %104)
  call void @llvm.lifetime.end.p0(i64 8, ptr %11) #9
  br label %105

105:                                              ; preds = %102, %48
  call void @llvm.lifetime.end.p0(i64 8, ptr %10) #9
  br label %106

106:                                              ; preds = %105
  %107 = load i32, ptr %9, align 4, !tbaa !27
  %108 = add nsw i32 %107, 1
  store i32 %108, ptr %9, align 4, !tbaa !27
  br label %33

109:                                              ; preds = %37
  %110 = load ptr, ptr %8, align 8, !tbaa !13
  %111 = getelementptr inbounds nuw %struct.dt_film_import1_t, ptr %110, i32 0, i32 1
  %112 = load ptr, ptr %111, align 8, !tbaa !30
  %113 = call ptr @g_list_reverse(ptr noundef %112)
  %114 = load ptr, ptr %8, align 8, !tbaa !13
  %115 = getelementptr inbounds nuw %struct.dt_film_import1_t, ptr %114, i32 0, i32 1
  store ptr %113, ptr %115, align 8, !tbaa !30
  %116 = load ptr, ptr %6, align 8, !tbaa !11
  store ptr %116, ptr %3, align 8
  store i32 1, ptr %7, align 4
  br label %117

117:                                              ; preds = %109, %22
  call void @llvm.lifetime.end.p0(i64 8, ptr %8) #9
  br label %118

118:                                              ; preds = %117, %17
  call void @llvm.lifetime.end.p0(i64 8, ptr %6) #9
  %119 = load ptr, ptr %3, align 8
  ret ptr %119

120:                                              ; preds = %98
  unreachable
}