; Function Attrs: nounwind uwtable
define ptr @dt_pathlist_import_create(i32 noundef %0, ptr noundef readonly captures(none) %1) local_unnamed_addr #0 {
  %3 = tail call ptr (ptr, ptr, ...) @dt_control_job_create(ptr noundef nonnull @_pathlist_import_run, ptr noundef nonnull @.str.2) #11
  %.not = icmp eq ptr %3, null
  br i1 %.not, label %38, label %4

4:                                                ; preds = %2
  %5 = tail call noalias dereferenceable_or_null(16) ptr @calloc(i64 noundef 1, i64 noundef 16) #12
  %.not41 = icmp eq ptr %5, null
  br i1 %.not41, label %6, label %7

6:                                                ; preds = %4
  tail call void @dt_control_job_dispose(ptr noundef nonnull %3) #11
  br label %38

7:                                                ; preds = %4
  %8 = tail call ptr @dcgettext(ptr noundef null, ptr noundef nonnull @.str.1, i32 noundef 5) #11
  tail call void @dt_control_job_add_progress(ptr noundef nonnull %3, ptr noundef %8, i32 noundef 1) #11
  tail call void @dt_control_job_set_params(ptr noundef nonnull %3, ptr noundef nonnull %5, ptr noundef nonnull @_pathlist_import_cleanup) #11
  %9 = getelementptr inbounds nuw i8, ptr %5, i64 8
  %10 = icmp sgt i32 %0, 1
  tail call void @llvm.memset.p0.i64(ptr noundef nonnull align 8 dereferenceable(16) %5, i8 0, i64 16, i1 false)
  br i1 %10, label %.lr.ph52.preheader, label %._crit_edge

.lr.ph52.preheader:                               ; preds = %7
  %wide.trip.count = zext nneg i32 %0 to i64
  br label %.lr.ph52

._crit_edge.loopexit:                             ; preds = %37
  %.pre = load ptr, ptr %9, align 8, !tbaa !19
  br label %._crit_edge

._crit_edge:                                      ; preds = %._crit_edge.loopexit, %7
  %11 = phi ptr [ %.pre, %._crit_edge.loopexit ], [ null, %7 ]
  %12 = tail call ptr @g_list_reverse(ptr noundef %11) #11
  store ptr %12, ptr %9, align 8, !tbaa !19
  br label %38

.lr.ph52:                                         ; preds = %.lr.ph52.preheader, %37
  %indvars.iv = phi i64 [ 1, %.lr.ph52.preheader ], [ %indvars.iv.next, %37 ]
  %13 = getelementptr inbounds nuw ptr, ptr %1, i64 %indvars.iv
  %14 = load ptr, ptr %13, align 8, !tbaa !20
  %15 = tail call ptr @dt_util_normalize_path(ptr noundef %14) #11
  %16 = tail call i32 @g_file_test(ptr noundef %15, i32 noundef 4) #11
  %.not42 = icmp eq i32 %16, 0
  br i1 %.not42, label %17, label %20

17:                                               ; preds = %.lr.ph52
  %18 = load ptr, ptr %9, align 8, !tbaa !19
  %19 = tail call ptr @g_list_prepend(ptr noundef %18, ptr noundef %15) #11
  store ptr %19, ptr %9, align 8, !tbaa !19
  br label %37

20:                                               ; preds = %.lr.ph52
  %21 = tail call ptr @g_dir_open(ptr noundef %15, i32 noundef 0, ptr noundef null) #11
  %.not43 = icmp eq ptr %21, null
  br i1 %.not43, label %.thread, label %.preheader

.preheader:                                       ; preds = %20
  %22 = tail call ptr @g_dir_read_name(ptr noundef nonnull %21) #11
  %.not4450 = icmp eq ptr %22, null
  br i1 %.not4450, label %.thread, label %.lr.ph

.lr.ph:                                           ; preds = %.preheader, %35
  %23 = phi ptr [ %36, %35 ], [ %22, %.preheader ]
  %24 = load i8, ptr %23, align 1, !tbaa !22
  %25 = icmp eq i8 %24, 46
  br i1 %25, label %35, label %26

26:                                               ; preds = %.lr.ph
  %27 = tail call noalias ptr (ptr, ...) @g_build_filename(ptr noundef %15, ptr noundef nonnull %23, ptr noundef null) #11
  %28 = tail call i32 @g_file_test(ptr noundef %27, i32 noundef 4) #11
  %.not45 = icmp eq i32 %28, 0
  br i1 %.not45, label %29, label %34

29:                                               ; preds = %26
  %30 = tail call i32 @dt_supported_image(ptr noundef nonnull %23) #11
  %.not46 = icmp eq i32 %30, 0
  br i1 %.not46, label %34, label %31

31:                                               ; preds = %29
  %32 = load ptr, ptr %9, align 8, !tbaa !19
  %33 = tail call ptr @g_list_prepend(ptr noundef %32, ptr noundef %27) #11
  store ptr %33, ptr %9, align 8, !tbaa !19
  br label %35

34:                                               ; preds = %29, %26
  tail call void @g_free(ptr noundef %27) #11
  br label %35

35:                                               ; preds = %31, %34, %.lr.ph
  %36 = tail call ptr @g_dir_read_name(ptr noundef nonnull %21) #11
  %.not44 = icmp eq ptr %36, null
  br i1 %.not44, label %.thread, label %.lr.ph

.thread:                                          ; preds = %35, %.preheader, %20
  tail call void @g_dir_close(ptr noundef %21) #11
  tail call void @g_free(ptr noundef %15) #11
  br label %37

37:                                               ; preds = %.thread, %17
  %indvars.iv.next = add nuw nsw i64 %indvars.iv, 1
  %exitcond.not = icmp eq i64 %indvars.iv.next, %wide.trip.count
  br i1 %exitcond.not, label %._crit_edge.loopexit, label %.lr.ph52

38:                                               ; preds = %6, %._crit_edge, %2
  %.0 = phi ptr [ null, %2 ], [ %3, %._crit_edge ], [ null, %6 ]
  ret ptr %.0
}